target datalayout = "e-m:e-p270:32:32-p271:32:32-p272:64:64-i64:64-i128:128-f80:128-n8:16:32:64-S128"
target triple = "x86_64-pc-linux-gnu"

%union.anon.3 = type { ptr }

@H5T_NATIVE_FLOAT_g = external global i64, align 8
@H5T_NATIVE_ULLONG_g = external global i64, align 8
@enable_error_stack = external global i32, align 4
@H5tools_ERR_STACK_g = external global i64, align 8
@H5tools_ERR_CLS_g = external global i64, align 8
@.str = private unnamed_addr constant [112 x i8] c"generated/home/dtcxzyw/WorkSpace/Projects/compilers/llvm-opt-benchmark/bench/hdf5/hdf5/tools/lib/h5diff_array.c\00", align 1
@H5E_tools_g = external global i64, align 8
@H5E_tools_min_id_g = external global i64, align 8
@stderr = external global ptr, align 8
@.str.2 = private unnamed_addr constant [2 x i8] c"\0A\00", align 1
@H5P_CLS_DATASET_XFER_ID_g = external global i64, align 8
@__func__.ull2float = private unnamed_addr constant [10 x i8] c"ull2float\00", align 1
@.str.112 = private unnamed_addr constant [17 x i8] c"H5Pcreate failed\00", align 1
@.str.113 = private unnamed_addr constant [35 x i8] c"Could not allocate buffer for dims\00", align 1
@.str.114 = private unnamed_addr constant [18 x i8] c"H5Tconvert failed\00", align 1

; Function Attrs: nounwind uwtable
define internal i32 @ull2float(i64 noundef %0, ptr noundef %1) #0 {
  %3 = alloca i64, align 8
  %4 = alloca ptr, align 8
  %5 = alloca i64, align 8
  %6 = alloca ptr, align 8
  %7 = alloca i64, align 8
  %8 = alloca i64, align 8
  %9 = alloca i32, align 4
  %10 = alloca i32, align 4
  %11 = alloca %union.anon.3, align 8
  %12 = alloca ptr, align 8
  store i64 %0, ptr %3, align 8
  store ptr %1, ptr %4, align 8
  store i64 -1, ptr %5, align 8
  store ptr null, ptr %6, align 8
  store i32 0, ptr %9, align 4
  br label %13

13:                                               ; preds = %2
  br label %14

14:                                               ; preds = %13
  %15 = load i64, ptr @H5P_CLS_DATASET_XFER_ID_g, align 8
  %16 = call i64 @H5Pcreate(i64 noundef %15)
  store i64 %16, ptr %5, align 8
  %17 = icmp slt i64 %16, 0
  br i1 %17, label %18, label %46

18:                                               ; preds = %14
  br label %19

19:                                               ; preds = %18
  br label %20

20:                                               ; preds = %19
  %21 = load i32, ptr @enable_error_stack, align 4
  %22 = icmp sgt i32 %21, 0
  br i1 %22, label %23, label %41

23:                                               ; preds = %20
  %24 = load i64, ptr @H5tools_ERR_STACK_g, align 8
  %25 = icmp sge i64 %24, 0
  br i1 %25, label %26, label %35

26:                                               ; preds = %23
  %27 = load i64, ptr @H5tools_ERR_CLS_g, align 8
  %28 = icmp sge i64 %27, 0
  br i1 %28, label %29, label %35

29:                                               ; preds = %26
  %30 = load i64, ptr @H5tools_ERR_STACK_g, align 8
  %31 = load i64, ptr @H5tools_ERR_CLS_g, align 8
  %32 = load i64, ptr @H5E_tools_g, align 8
  %33 = load i64, ptr @H5E_tools_min_id_g, align 8
  %34 = call i32 (i64, ptr, ptr, i32, i64, i64, i64, ptr, ...) @H5Epush2(i64 noundef %30, ptr noundef @.str, ptr noundef @__func__.ull2float, i32 noundef 3313, i64 noundef %31, i64 noundef %32, i64 noundef %33, ptr noundef @.str.112)
  br label %40

35:                                               ; preds = %26, %23
  %36 = load ptr, ptr @stderr, align 8
  %37 = call i32 (ptr, ptr, ...) @fprintf(ptr noundef %36, ptr noundef @.str.112) #13
  %38 = load ptr, ptr @stderr, align 8
  %39 = call i32 (ptr, ptr, ...) @fprintf(ptr noundef %38, ptr noundef @.str.2) #13
  br label %40

40:                                               ; preds = %35, %29
  br label %41

41:                                               ; preds = %40, %20
  br label %42

42:                                               ; preds = %41
  br label %43

43:                                               ; preds = %42
  store i32 -1, ptr %9, align 4
  br label %131

44:                                               ; No predecessors!
  br label %45

45:                                               ; preds = %44
  br label %46

46:                                               ; preds = %45, %14
  %47 = load i64, ptr @H5T_NATIVE_ULLONG_g, align 8
  %48 = call i64 @H5Tget_size(i64 noundef %47)
  store i64 %48, ptr %7, align 8
  %49 = load i64, ptr @H5T_NATIVE_FLOAT_g, align 8
  %50 = call i64 @H5Tget_size(i64 noundef %49)
  store i64 %50, ptr %8, align 8
  %51 = load i64, ptr %7, align 8
  %52 = load i64, ptr %8, align 8
  %53 = icmp ugt i64 %51, %52
  br i1 %53, label %54, label %56

54:                                               ; preds = %46
  %55 = load i64, ptr %7, align 8
  br label %58

56:                                               ; preds = %46
  %57 = load i64, ptr %8, align 8
  br label %58

58:                                               ; preds = %56, %54
  %59 = phi i64 [ %55, %54 ], [ %57, %56 ]
  %60 = call noalias ptr @calloc(i64 noundef 1, i64 noundef %59) #11
  store ptr %60, ptr %6, align 8
  %61 = icmp eq ptr %60, null
  br i1 %61, label %62, label %90

62:                                               ; preds = %58
  br label %63

63:                                               ; preds = %62
  br label %64

64:                                               ; preds = %63
  %65 = load i32, ptr @enable_error_stack, align 4
  %66 = icmp sgt i32 %65, 0
  br i1 %66, label %67, label %85

67:                                               ; preds = %64
  %68 = load i64, ptr @H5tools_ERR_STACK_g, align 8
  %69 = icmp sge i64 %68, 0
  br i1 %69, label %70, label %79

70:                                               ; preds = %67
  %71 = load i64, ptr @H5tools_ERR_CLS_g, align 8
  %72 = icmp sge i64 %71, 0
  br i1 %72, label %73, label %79

73:                                               ; preds = %70
  %74 = load i64, ptr @H5tools_ERR_STACK_g, align 8
  %75 = load i64, ptr @H5tools_ERR_CLS_g, align 8
  %76 = load i64, ptr @H5E_tools_g, align 8
  %77 = load i64, ptr @H5E_tools_min_id_g, align 8
  %78 = call i32 (i64, ptr, ptr, i32, i64, i64, i64, ptr, ...) @H5Epush2(i64 noundef %74, ptr noundef @.str, ptr noundef @__func__.ull2float, i32 noundef 3318, i64 noundef %75, i64 noundef %76, i64 noundef %77, ptr noundef @.str.113)
  br label %84

79:                                               ; preds = %70, %67
  %80 = load ptr, ptr @stderr, align 8
  %81 = call i32 (ptr, ptr, ...) @fprintf(ptr noundef %80, ptr noundef @.str.113) #13
  %82 = load ptr, ptr @stderr, align 8
  %83 = call i32 (ptr, ptr, ...) @fprintf(ptr noundef %82, ptr noundef @.str.2) #13
  br label %84

84:                                               ; preds = %79, %73
  br label %85

85:                                               ; preds = %84, %64
  br label %86

86:                                               ; preds = %85
  br label %87

87:                                               ; preds = %86
  store i32 -1, ptr %9, align 4
  br label %131

88:                                               ; No predecessors!
  br label %89

89:                                               ; preds = %88
  br label %90

90:                                               ; preds = %89, %58
  %91 = load ptr, ptr %6, align 8
  %92 = load i64, ptr %7, align 8
  call void @llvm.memcpy.p0.p0.i64(ptr align 1 %91, ptr align 8 %3, i64 %92, i1 false)
  %93 = load i64, ptr @H5T_NATIVE_ULLONG_g, align 8
  %94 = load i64, ptr @H5T_NATIVE_FLOAT_g, align 8
  %95 = load ptr, ptr %6, align 8
  %96 = load i64, ptr %5, align 8
  %97 = call i32 @H5Tconvert(i64 noundef %93, i64 noundef %94, i64 noundef 1, ptr noundef %95, ptr noundef null, i64 noundef %96)
  %98 = icmp slt i32 %97, 0
  br i1 %98, label %99, label %127

99:                                               ; preds = %90
  br label %100

100:                                              ; preds = %99
  br label %101

101:                                              ; preds = %100
  %102 = load i32, ptr @enable_error_stack, align 4
  %103 = icmp sgt i32 %102, 0
  br i1 %103, label %104, label %122

104:                                              ; preds = %101
  %105 = load i64, ptr @H5tools_ERR_STACK_g, align 8
  %106 = icmp sge i64 %105, 0
  br i1 %106, label %107, label %116

107:                                              ; preds = %104
  %108 = load i64, ptr @H5tools_ERR_CLS_g, align 8
  %109 = icmp sge i64 %108, 0
  br i1 %109, label %110, label %116

110:                                              ; preds = %107
  %111 = load i64, ptr @H5tools_ERR_STACK_g, align 8
  %112 = load i64, ptr @H5tools_ERR_CLS_g, align 8
  %113 = load i64, ptr @H5E_tools_g, align 8
  %114 = load i64, ptr @H5E_tools_min_id_g, align 8
  %115 = call i32 (i64, ptr, ptr, i32, i64, i64, i64, ptr, ...) @H5Epush2(i64 noundef %111, ptr noundef @.str, ptr noundef @__func__.ull2float, i32 noundef 3324, i64 noundef %112, i64 noundef %113, i64 noundef %114, ptr noundef @.str.114)
  br label %121

116:                                              ; preds = %107, %104
  %117 = load ptr, ptr @stderr, align 8
  %118 = call i32 (ptr, ptr, ...) @fprintf(ptr noundef %117, ptr noundef @.str.114) #13
  %119 = load ptr, ptr @stderr, align 8
  %120 = call i32 (ptr, ptr, ...) @fprintf(ptr noundef %119, ptr noundef @.str.2) #13
  br label %121

121:                                              ; preds = %116, %110
  br label %122

122:                                              ; preds = %121, %101
  br label %123

123:                                              ; preds = %122
  br label %124

124:                                              ; preds = %123
  store i32 -1, ptr %9, align 4
  br label %131

125:                                              ; No predecessors!
  br label %126

126:                                              ; preds = %125
  br label %127

127:                                              ; preds = %126, %90
  %128 = load ptr, ptr %4, align 8
  %129 = load ptr, ptr %6, align 8
  %130 = load i64, ptr %8, align 8
  call void @llvm.memcpy.p0.p0.i64(ptr align 4 %128, ptr align 1 %129, i64 %130, i1 false)
  br label %131

131:                                              ; preds = %127, %124, %87, %43
  %132 = call i32 @H5Eauto_is_v2(i64 noundef 0, ptr noundef %10)
  %133 = load i32, ptr %10, align 4
  %134 = icmp ne i32 %133, 0
  br i1 %134, label %135, label %138

135:                                              ; preds = %131
  %136 = call i32 @H5Eget_auto2(i64 noundef 0, ptr noundef %11, ptr noundef %12)
  %137 = call i32 @H5Eset_auto2(i64 noundef 0, ptr noundef null, ptr noundef null)
  br label %141

138:                                              ; preds = %131
  %139 = call i32 @H5Eget_auto1(ptr noundef %11, ptr noundef %12)
  %140 = call i32 @H5Eset_auto1(ptr noundef null, ptr noundef null)
  br label %141

141:                                              ; preds = %138, %135
  %142 = load i64, ptr %5, align 8
  %143 = call i32 @H5Pclose(i64 noundef %142)
  %144 = load i32, ptr %10, align 4
  %145 = icmp ne i32 %144, 0
  br i1 %145, label %146, label %150

146:                                              ; preds = %141
  %147 = load ptr, ptr %11, align 8
  %148 = load ptr, ptr %12, align 8
  %149 = call i32 @H5Eset_auto2(i64 noundef 0, ptr noundef %147, ptr noundef %148)
  br label %154

150:                                              ; preds = %141
  %151 = load ptr, ptr %11, align 8
  %152 = load ptr, ptr %12, align 8
  %153 = call i32 @H5Eset_auto1(ptr noundef %151, ptr noundef %152)
  br label %154

154:                                              ; preds = %150, %146
  %155 = load ptr, ptr %6, align 8
  %156 = icmp ne ptr %155, null
  br i1 %156, label %157, label %159

157:                                              ; preds = %154
  %158 = load ptr, ptr %6, align 8
  call void @free(ptr noundef %158) #13
  br label %159

159:                                              ; preds = %157, %154
  br label %160

160:                                              ; preds = %159
  br label %161

161:                                              ; preds = %160
  %162 = load i32, ptr %9, align 4
  ret i32 %162
}