; Function Attrs: nounwind uwtable
define internal fastcc void @ull2float(i64 noundef %0, ptr nocapture noundef writeonly %1) unnamed_addr #0 {
  %3 = alloca i64, align 8
  %4 = alloca i32, align 4
  %5 = alloca %union.anon.3, align 8
  %6 = alloca ptr, align 8
  store i64 %0, ptr %3, align 8
  %7 = load i64, ptr @H5P_CLS_DATASET_XFER_ID_g, align 8
  %8 = tail call i64 @H5Pcreate(i64 noundef %7) #14
  %9 = icmp slt i64 %8, 0
  br i1 %9, label %10, label %26

10:                                               ; preds = %2
  %11 = load i32, ptr @enable_error_stack, align 4
  %12 = icmp sgt i32 %11, 0
  br i1 %12, label %13, label %72

13:                                               ; preds = %10
  %14 = load i64, ptr @H5tools_ERR_STACK_g, align 8
  %15 = icmp sgt i64 %14, -1
  %16 = load i64, ptr @H5tools_ERR_CLS_g, align 8
  %17 = icmp sgt i64 %16, -1
  %or.cond = select i1 %15, i1 %17, i1 false
  br i1 %or.cond, label %18, label %22

18:                                               ; preds = %13
  %19 = load i64, ptr @H5E_tools_g, align 8
  %20 = load i64, ptr @H5E_tools_min_id_g, align 8
  %21 = tail call i32 (i64, ptr, ptr, i32, i64, i64, i64, ptr, ...) @H5Epush2(i64 noundef %14, ptr noundef nonnull @.str, ptr noundef nonnull @__func__.ull2float, i32 noundef 3313, i64 noundef %16, i64 noundef %19, i64 noundef %20, ptr noundef nonnull @.str.112) #14
  br label %72

22:                                               ; preds = %13
  %23 = load ptr, ptr @stderr, align 8
  %24 = tail call i64 @fwrite(ptr nonnull @.str.112, i64 16, i64 1, ptr %23) #17
  %25 = load ptr, ptr @stderr, align 8
  %fputc29 = tail call i32 @fputc(i32 10, ptr %25)
  br label %72

26:                                               ; preds = %2
  %27 = load i64, ptr @H5T_NATIVE_ULLONG_g, align 8
  %28 = tail call i64 @H5Tget_size(i64 noundef %27) #14
  %29 = load i64, ptr @H5T_NATIVE_FLOAT_g, align 8
  %30 = tail call i64 @H5Tget_size(i64 noundef %29) #14
  %31 = tail call i64 @llvm.umax.i64(i64 %28, i64 %30)
  %32 = tail call noalias ptr @calloc(i64 noundef 1, i64 noundef %31) #15
  %33 = icmp eq ptr %32, null
  br i1 %33, label %34, label %50

34:                                               ; preds = %26
  %35 = load i32, ptr @enable_error_stack, align 4
  %36 = icmp sgt i32 %35, 0
  br i1 %36, label %37, label %72

37:                                               ; preds = %34
  %38 = load i64, ptr @H5tools_ERR_STACK_g, align 8
  %39 = icmp sgt i64 %38, -1
  %40 = load i64, ptr @H5tools_ERR_CLS_g, align 8
  %41 = icmp sgt i64 %40, -1
  %or.cond3 = select i1 %39, i1 %41, i1 false
  br i1 %or.cond3, label %42, label %46

42:                                               ; preds = %37
  %43 = load i64, ptr @H5E_tools_g, align 8
  %44 = load i64, ptr @H5E_tools_min_id_g, align 8
  %45 = tail call i32 (i64, ptr, ptr, i32, i64, i64, i64, ptr, ...) @H5Epush2(i64 noundef %38, ptr noundef nonnull @.str, ptr noundef nonnull @__func__.ull2float, i32 noundef 3318, i64 noundef %40, i64 noundef %43, i64 noundef %44, ptr noundef nonnull @.str.113) #14
  br label %72

46:                                               ; preds = %37
  %47 = load ptr, ptr @stderr, align 8
  %48 = tail call i64 @fwrite(ptr nonnull @.str.113, i64 34, i64 1, ptr %47) #17
  %49 = load ptr, ptr @stderr, align 8
  %fputc28 = tail call i32 @fputc(i32 10, ptr %49)
  br label %72

50:                                               ; preds = %26
  call void @llvm.memcpy.p0.p0.i64(ptr nonnull align 1 %32, ptr nonnull align 8 %3, i64 %28, i1 false)
  %51 = load i64, ptr @H5T_NATIVE_ULLONG_g, align 8
  %52 = load i64, ptr @H5T_NATIVE_FLOAT_g, align 8
  %53 = tail call i32 @H5Tconvert(i64 noundef %51, i64 noundef %52, i64 noundef 1, ptr noundef nonnull %32, ptr noundef null, i64 noundef %8) #14
  %54 = icmp slt i32 %53, 0
  br i1 %54, label %55, label %71

55:                                               ; preds = %50
  %56 = load i32, ptr @enable_error_stack, align 4
  %57 = icmp sgt i32 %56, 0
  br i1 %57, label %58, label %72

58:                                               ; preds = %55
  %59 = load i64, ptr @H5tools_ERR_STACK_g, align 8
  %60 = icmp sgt i64 %59, -1
  %61 = load i64, ptr @H5tools_ERR_CLS_g, align 8
  %62 = icmp sgt i64 %61, -1
  %or.cond5 = select i1 %60, i1 %62, i1 false
  br i1 %or.cond5, label %63, label %67

63:                                               ; preds = %58
  %64 = load i64, ptr @H5E_tools_g, align 8
  %65 = load i64, ptr @H5E_tools_min_id_g, align 8
  %66 = tail call i32 (i64, ptr, ptr, i32, i64, i64, i64, ptr, ...) @H5Epush2(i64 noundef %59, ptr noundef nonnull @.str, ptr noundef nonnull @__func__.ull2float, i32 noundef 3324, i64 noundef %61, i64 noundef %64, i64 noundef %65, ptr noundef nonnull @.str.114) #14
  br label %72

67:                                               ; preds = %58
  %68 = load ptr, ptr @stderr, align 8
  %69 = tail call i64 @fwrite(ptr nonnull @.str.114, i64 17, i64 1, ptr %68) #17
  %70 = load ptr, ptr @stderr, align 8
  %fputc = tail call i32 @fputc(i32 10, ptr %70)
  br label %72

71:                                               ; preds = %50
  tail call void @llvm.memcpy.p0.p0.i64(ptr align 4 %1, ptr nonnull align 1 %32, i64 %30, i1 false)
  br label %72

72:                                               ; preds = %55, %67, %63, %34, %46, %42, %10, %22, %18, %71
  %.019 = phi ptr [ %32, %71 ], [ null, %18 ], [ null, %22 ], [ null, %10 ], [ null, %42 ], [ null, %46 ], [ null, %34 ], [ %32, %63 ], [ %32, %67 ], [ %32, %55 ]
  %73 = call i32 @H5Eauto_is_v2(i64 noundef 0, ptr noundef nonnull %4) #14
  %74 = load i32, ptr %4, align 4
  %.not = icmp eq i32 %74, 0
  br i1 %.not, label %78, label %75

75:                                               ; preds = %72
  %76 = call i32 @H5Eget_auto2(i64 noundef 0, ptr noundef nonnull %5, ptr noundef nonnull %6) #14
  %77 = call i32 @H5Eset_auto2(i64 noundef 0, ptr noundef null, ptr noundef null) #14
  br label %81

78:                                               ; preds = %72
  %79 = call i32 @H5Eget_auto1(ptr noundef nonnull %5, ptr noundef nonnull %6) #14
  %80 = call i32 @H5Eset_auto1(ptr noundef null, ptr noundef null) #14
  br label %81

81:                                               ; preds = %78, %75
  %82 = call i32 @H5Pclose(i64 noundef %8) #14
  %83 = load i32, ptr %4, align 4
  %.not30 = icmp eq i32 %83, 0
  %84 = load ptr, ptr %5, align 8
  %85 = load ptr, ptr %6, align 8
  br i1 %.not30, label %88, label %86

86:                                               ; preds = %81
  %87 = call i32 @H5Eset_auto2(i64 noundef 0, ptr noundef %84, ptr noundef %85) #14
  br label %90

88:                                               ; preds = %81
  %89 = call i32 @H5Eset_auto1(ptr noundef %84, ptr noundef %85) #14
  br label %90

90:                                               ; preds = %88, %86
  %.not31 = icmp eq ptr %.019, null
  br i1 %.not31, label %92, label %91

91:                                               ; preds = %90
  call void @free(ptr noundef nonnull %.019) #14
  br label %92

92:                                               ; preds = %91, %90
  ret void
}